; Function Attrs: mustprogress uwtable
define internal void @_ZN17grpc_event_engine12experimental12_GLOBAL__N_130EnsureEventEngineInChannelArgsEN9grpc_core11ChannelArgsE(ptr dead_on_unwind noalias writable sret(%"class.grpc_core::ChannelArgs") align 8 %0, ptr noundef nonnull %1) #3 personality ptr @__gxx_personality_v0 {
  %3 = alloca %"class.std::shared_ptr", align 8
  %4 = alloca %"class.std::shared_ptr", align 8
  %5 = tail call noundef ptr @_ZNK9grpc_core11ChannelArgs3GetESt17basic_string_viewIcSt11char_traitsIcEE(ptr noundef nonnull align 8 dereferenceable(8) %1, i64 26, ptr nonnull @.str.5)
  %.not = icmp eq ptr %5, null
  br i1 %.not, label %7, label %6

6:                                                ; preds = %2
  tail call void @_ZN9grpc_core11ChannelArgsC1EOS0_(ptr noundef nonnull align 8 dereferenceable(8) %0, ptr noundef nonnull align 8 dereferenceable(8) %1) #29
  br label %_ZNSt12__shared_ptrIN17grpc_event_engine12experimental11EventEngineELN9__gnu_cxx12_Lock_policyE2EED2Ev.exit

7:                                                ; preds = %2
  call void @_ZN17grpc_event_engine12experimental21GetDefaultEventEngineEv(ptr dead_on_unwind nonnull writable sret(%"class.std::shared_ptr") align 8 %4)
  call void @llvm.lifetime.start.p0(i64 16, ptr nonnull %3)
  %8 = load ptr, ptr %4, align 8, !tbaa !25, !noalias !121
  store ptr %8, ptr %3, align 8, !tbaa !25, !noalias !121
  %9 = getelementptr inbounds nuw i8, ptr %3, i64 8
  %10 = getelementptr inbounds nuw i8, ptr %4, i64 8
  %11 = load ptr, ptr %10, align 8, !tbaa !29, !noalias !121
  store ptr null, ptr %10, align 8, !tbaa !29, !noalias !121
  store ptr %11, ptr %9, align 8, !tbaa !29, !noalias !121
  store ptr null, ptr %4, align 8, !tbaa !25, !noalias !121
  invoke void @_ZNK9grpc_core11ChannelArgs3SetIN17grpc_event_engine12experimental11EventEngineEEENSt9enable_ifIXsr3std7is_sameIPK23grpc_arg_pointer_vtableDTclsr20ChannelArgTypeTraitsISt10shared_ptrIT_EEE6VTableEEEE5valueES0_E4typeESt17basic_string_viewIcSt11char_traitsIcEESB_(ptr dead_on_unwind writable sret(%"class.grpc_core::ChannelArgs") align 8 %0, ptr noundef nonnull align 8 dereferenceable(8) %1, i64 26, ptr nonnull @.str.5, ptr noundef nonnull %3)
          to label %12 unwind label %.body

12:                                               ; preds = %7
  %13 = load ptr, ptr %9, align 8, !tbaa !29, !noalias !121
  %.not.i.i.i = icmp eq ptr %13, null
  br i1 %.not.i.i.i, label %36, label %14

14:                                               ; preds = %12
  %15 = getelementptr inbounds nuw i8, ptr %13, i64 8
  %16 = load atomic i64, ptr %15 acquire, align 8
  %17 = icmp eq i64 %16, 4294967297
  %18 = trunc i64 %16 to i32
  br i1 %17, label %19, label %27

19:                                               ; preds = %14
  store i32 0, ptr %15, align 8, !tbaa !18
  %20 = getelementptr inbounds nuw i8, ptr %13, i64 12
  store i32 0, ptr %20, align 4, !tbaa !20
  %21 = load ptr, ptr %13, align 8, !tbaa !16
  %22 = getelementptr inbounds nuw i8, ptr %21, i64 16
  %23 = load ptr, ptr %22, align 8
  call void %23(ptr noundef nonnull align 8 dereferenceable(16) %13) #29
  %24 = load ptr, ptr %13, align 8, !tbaa !16
  %25 = getelementptr inbounds nuw i8, ptr %24, i64 24
  %26 = load ptr, ptr %25, align 8
  call void %26(ptr noundef nonnull align 8 dereferenceable(16) %13) #29
  br label %36

27:                                               ; preds = %14
  %28 = load i8, ptr @__libc_single_threaded, align 1, !tbaa !13, !noalias !121
  %.not.i.i.i.i = icmp eq i8 %28, 0
  br i1 %.not.i.i.i.i, label %31, label %29

29:                                               ; preds = %27
  %30 = add nsw i32 %18, -1
  store i32 %30, ptr %15, align 4, !tbaa !14
  br label %_ZN9__gnu_cxx27__exchange_and_add_dispatchEPii.exit.i.i.i.i

31:                                               ; preds = %27
  %32 = atomicrmw volatile add ptr %15, i32 -1 acq_rel, align 4
  br label %_ZN9__gnu_cxx27__exchange_and_add_dispatchEPii.exit.i.i.i.i

_ZN9__gnu_cxx27__exchange_and_add_dispatchEPii.exit.i.i.i.i: ; preds = %31, %29
  %.0.i.i.i.i.i = phi i32 [ %18, %29 ], [ %32, %31 ]
  %33 = icmp eq i32 %.0.i.i.i.i.i, 1
  br i1 %33, label %34, label %36, !prof !21

34:                                               ; preds = %_ZN9__gnu_cxx27__exchange_and_add_dispatchEPii.exit.i.i.i.i
  call void @_ZNSt16_Sp_counted_baseILN9__gnu_cxx12_Lock_policyE2EE24_M_release_last_use_coldEv(ptr noundef nonnull align 8 dereferenceable(16) %13) #29
  br label %36

.body:                                            ; preds = %7
  %35 = landingpad { ptr, i32 }
          cleanup
  call void @_ZNSt12__shared_ptrIN17grpc_event_engine12experimental11EventEngineELN9__gnu_cxx12_Lock_policyE2EED2Ev(ptr noundef nonnull align 8 dereferenceable(16) %3) #29
  call void @_ZNSt12__shared_ptrIN17grpc_event_engine12experimental11EventEngineELN9__gnu_cxx12_Lock_policyE2EED2Ev(ptr noundef nonnull align 8 dereferenceable(16) %4) #29
  resume { ptr, i32 } %35

36:                                               ; preds = %34, %_ZN9__gnu_cxx27__exchange_and_add_dispatchEPii.exit.i.i.i.i, %19, %12
  call void @llvm.lifetime.end.p0(i64 16, ptr nonnull %3)
  %37 = load ptr, ptr %10, align 8, !tbaa !29
  %.not.i.i = icmp eq ptr %37, null
  br i1 %.not.i.i, label %_ZNSt12__shared_ptrIN17grpc_event_engine12experimental11EventEngineELN9__gnu_cxx12_Lock_policyE2EED2Ev.exit, label %38

38:                                               ; preds = %36
  %39 = getelementptr inbounds nuw i8, ptr %37, i64 8
  %40 = load atomic i64, ptr %39 acquire, align 8
  %41 = icmp eq i64 %40, 4294967297
  %42 = trunc i64 %40 to i32
  br i1 %41, label %43, label %51

43:                                               ; preds = %38
  store i32 0, ptr %39, align 8, !tbaa !18
  %44 = getelementptr inbounds nuw i8, ptr %37, i64 12
  store i32 0, ptr %44, align 4, !tbaa !20
  %45 = load ptr, ptr %37, align 8, !tbaa !16
  %46 = getelementptr inbounds nuw i8, ptr %45, i64 16
  %47 = load ptr, ptr %46, align 8
  call void %47(ptr noundef nonnull align 8 dereferenceable(16) %37) #29
  %48 = load ptr, ptr %37, align 8, !tbaa !16
  %49 = getelementptr inbounds nuw i8, ptr %48, i64 24
  %50 = load ptr, ptr %49, align 8
  call void %50(ptr noundef nonnull align 8 dereferenceable(16) %37) #29
  br label %_ZNSt12__shared_ptrIN17grpc_event_engine12experimental11EventEngineELN9__gnu_cxx12_Lock_policyE2EED2Ev.exit

51:                                               ; preds = %38
  %52 = load i8, ptr @__libc_single_threaded, align 1, !tbaa !13
  %.not.i.i.i1 = icmp eq i8 %52, 0
  br i1 %.not.i.i.i1, label %55, label %53

53:                                               ; preds = %51
  %54 = add nsw i32 %42, -1
  store i32 %54, ptr %39, align 4, !tbaa !14
  br label %_ZN9__gnu_cxx27__exchange_and_add_dispatchEPii.exit.i.i.i

55:                                               ; preds = %51
  %56 = atomicrmw volatile add ptr %39, i32 -1 acq_rel, align 4
  br label %_ZN9__gnu_cxx27__exchange_and_add_dispatchEPii.exit.i.i.i

_ZN9__gnu_cxx27__exchange_and_add_dispatchEPii.exit.i.i.i: ; preds = %55, %53
  %.0.i.i.i.i = phi i32 [ %42, %53 ], [ %56, %55 ]
  %57 = icmp eq i32 %.0.i.i.i.i, 1
  br i1 %57, label %58, label %_ZNSt12__shared_ptrIN17grpc_event_engine12experimental11EventEngineELN9__gnu_cxx12_Lock_policyE2EED2Ev.exit, !prof !21

58:                                               ; preds = %_ZN9__gnu_cxx27__exchange_and_add_dispatchEPii.exit.i.i.i
  call void @_ZNSt16_Sp_counted_baseILN9__gnu_cxx12_Lock_policyE2EE24_M_release_last_use_coldEv(ptr noundef nonnull align 8 dereferenceable(16) %37) #29
  br label %_ZNSt12__shared_ptrIN17grpc_event_engine12experimental11EventEngineELN9__gnu_cxx12_Lock_policyE2EED2Ev.exit

_ZNSt12__shared_ptrIN17grpc_event_engine12experimental11EventEngineELN9__gnu_cxx12_Lock_policyE2EED2Ev.exit: ; preds = %58, %_ZN9__gnu_cxx27__exchange_and_add_dispatchEPii.exit.i.i.i, %43, %36, %6
  ret void
}